; Function Attrs: mustprogress nounwind uwtable
define void @_ZN18OpenImageIO_v2_6_010Filesystem9extensionB5cxx11ENS_17basic_string_viewIcSt11char_traitsIcEEEb(ptr noalias nonnull sret(%"class.std::__cxx11::basic_string") align 8 %agg.result, ptr nocapture noundef readonly %filepath, i1 noundef zeroext %include_dot) local_unnamed_addr #3 personality ptr @__gxx_personality_v0 {
entry:
  %ref.tmp.i.i = alloca %"class.std::allocator", align 1
  %ref.tmp = alloca %"class.std::__cxx11::basic_string", align 8
  %ref.tmp1 = alloca %"class.std::filesystem::__cxx11::path", align 8
  %ref.tmp2 = alloca %"class.std::filesystem::__cxx11::path", align 8
  tail call void @_ZNSt7__cxx1112basic_stringIcSt11char_traitsIcESaIcEEC1Ev(ptr noundef nonnull align 8 dereferenceable(32) %agg.result) #32
  %0 = load ptr, ptr %filepath, align 8
  %m_len.i.i = getelementptr inbounds i8, ptr %filepath, i64 8
  %1 = load i64, ptr %m_len.i.i, align 8
  %add.ptr.i.i = getelementptr inbounds i8, ptr %0, i64 %1
  invoke void @_ZNSt10filesystem7__cxx114pathC2IPKcS1_EET_S5_NS1_6formatE(ptr noundef nonnull align 8 dereferenceable(40) %ref.tmp2, ptr noundef %0, ptr noundef %add.ptr.i.i, i8 noundef zeroext 2)
          to label %invoke.cont3 unwind label %lpad

invoke.cont3:                                     ; preds = %entry
  invoke void @_ZNKSt10filesystem7__cxx114path9extensionEv(ptr nonnull sret(%"class.std::filesystem::__cxx11::path") align 8 %ref.tmp1, ptr noundef nonnull align 8 dereferenceable(40) %ref.tmp2)
          to label %invoke.cont5 unwind label %lpad4

invoke.cont5:                                     ; preds = %invoke.cont3
  call void @llvm.lifetime.start.p0(i64 1, ptr nonnull %ref.tmp.i.i), !noalias !16
  call void @_ZNSaIcEC1Ev(ptr noundef nonnull align 1 dereferenceable(1) %ref.tmp.i.i) #32, !noalias !19
  %call.i.i.i = call noundef ptr @_ZNKSt7__cxx1112basic_stringIcSt11char_traitsIcESaIcEE5c_strEv(ptr noundef nonnull align 8 dereferenceable(32) %ref.tmp1) #32, !noalias !22
  %call3.i.i.i = call noundef i64 @_ZNKSt7__cxx1112basic_stringIcSt11char_traitsIcESaIcEE6lengthEv(ptr noundef nonnull align 8 dereferenceable(32) %ref.tmp1) #32, !noalias !22
  invoke void @_ZNSt7__cxx1112basic_stringIcSt11char_traitsIcESaIcEEC1EPKcmRKS3_(ptr noundef nonnull align 8 dereferenceable(32) %ref.tmp, ptr noundef %call.i.i.i, i64 noundef %call3.i.i.i, ptr noundef nonnull align 1 dereferenceable(1) %ref.tmp.i.i)
          to label %invoke.cont7 unwind label %lpad.i.i

lpad.i.i:                                         ; preds = %invoke.cont5
  %2 = landingpad { ptr, i32 }
          catch ptr null
  call void @_ZNSaIcED1Ev(ptr noundef nonnull align 1 dereferenceable(1) %ref.tmp.i.i) #32
  call void @_ZNSt10filesystem7__cxx114pathD2Ev(ptr noundef nonnull align 8 dereferenceable(40) %ref.tmp1) #32
  br label %ehcleanup

invoke.cont7:                                     ; preds = %invoke.cont5
  call void @_ZNSaIcED1Ev(ptr noundef nonnull align 1 dereferenceable(1) %ref.tmp.i.i) #32
  call void @llvm.lifetime.end.p0(i64 1, ptr nonnull %ref.tmp.i.i), !noalias !16
  %call = call noundef nonnull align 8 dereferenceable(32) ptr @_ZNSt7__cxx1112basic_stringIcSt11char_traitsIcESaIcEEaSEOS4_(ptr noundef nonnull align 8 dereferenceable(32) %agg.result, ptr noundef nonnull align 8 dereferenceable(32) %ref.tmp) #32
  call void @_ZNSt7__cxx1112basic_stringIcSt11char_traitsIcESaIcEED1Ev(ptr noundef nonnull align 8 dereferenceable(32) %ref.tmp) #32
  %_M_cmpts.i = getelementptr inbounds i8, ptr %ref.tmp1, i64 32
  %3 = load ptr, ptr %_M_cmpts.i, align 8
  %cmp.not.i.i.i = icmp eq ptr %3, null
  br i1 %cmp.not.i.i.i, label %_ZNSt10filesystem7__cxx114pathD2Ev.exit, label %if.then.i.i.i

if.then.i.i.i:                                    ; preds = %invoke.cont7
  call void @_ZNKSt10filesystem7__cxx114path5_List13_Impl_deleterclEPNS2_5_ImplE(ptr noundef nonnull align 1 dereferenceable(1) %_M_cmpts.i, ptr noundef nonnull %3) #32
  br label %_ZNSt10filesystem7__cxx114pathD2Ev.exit

_ZNSt10filesystem7__cxx114pathD2Ev.exit:          ; preds = %invoke.cont7, %if.then.i.i.i
  store ptr null, ptr %_M_cmpts.i, align 8
  call void @_ZNSt7__cxx1112basic_stringIcSt11char_traitsIcESaIcEED1Ev(ptr noundef nonnull align 8 dereferenceable(32) %ref.tmp1) #32
  %_M_cmpts.i2 = getelementptr inbounds i8, ptr %ref.tmp2, i64 32
  %4 = load ptr, ptr %_M_cmpts.i2, align 8
  %cmp.not.i.i.i3 = icmp eq ptr %4, null
  br i1 %cmp.not.i.i.i3, label %_ZNSt10filesystem7__cxx114pathD2Ev.exit5, label %if.then.i.i.i4

if.then.i.i.i4:                                   ; preds = %_ZNSt10filesystem7__cxx114pathD2Ev.exit
  call void @_ZNKSt10filesystem7__cxx114path5_List13_Impl_deleterclEPNS2_5_ImplE(ptr noundef nonnull align 1 dereferenceable(1) %_M_cmpts.i2, ptr noundef nonnull %4) #32
  br label %_ZNSt10filesystem7__cxx114pathD2Ev.exit5

_ZNSt10filesystem7__cxx114pathD2Ev.exit5:         ; preds = %_ZNSt10filesystem7__cxx114pathD2Ev.exit, %if.then.i.i.i4
  store ptr null, ptr %_M_cmpts.i2, align 8
  call void @_ZNSt7__cxx1112basic_stringIcSt11char_traitsIcESaIcEED1Ev(ptr noundef nonnull align 8 dereferenceable(32) %ref.tmp2) #32
  br label %try.cont

lpad:                                             ; preds = %entry
  %5 = landingpad { ptr, i32 }
          catch ptr null
  br label %catch

lpad4:                                            ; preds = %invoke.cont3
  %6 = landingpad { ptr, i32 }
          catch ptr null
  br label %ehcleanup

ehcleanup:                                        ; preds = %lpad.i.i, %lpad4
  %.pn = phi { ptr, i32 } [ %2, %lpad.i.i ], [ %6, %lpad4 ]
  call void @_ZNSt10filesystem7__cxx114pathD2Ev(ptr noundef nonnull align 8 dereferenceable(40) %ref.tmp2) #32
  br label %catch

catch:                                            ; preds = %ehcleanup, %lpad
  %.pn.pn = phi { ptr, i32 } [ %.pn, %ehcleanup ], [ %5, %lpad ]
  %exn.slot.1 = extractvalue { ptr, i32 } %.pn.pn, 0
  %7 = call ptr @__cxa_begin_catch(ptr %exn.slot.1) #32
  invoke void @__cxa_end_catch()
          to label %try.cont unwind label %terminate.lpad

try.cont:                                         ; preds = %catch, %_ZNSt10filesystem7__cxx114pathD2Ev.exit5
  br i1 %include_dot, label %nrvo.skipdtor, label %land.lhs.true

land.lhs.true:                                    ; preds = %try.cont
  %call9 = call noundef zeroext i1 @_ZNKSt7__cxx1112basic_stringIcSt11char_traitsIcESaIcEE5emptyEv(ptr noundef nonnull align 8 dereferenceable(32) %agg.result) #32
  br i1 %call9, label %nrvo.skipdtor, label %land.lhs.true10

land.lhs.true10:                                  ; preds = %land.lhs.true
  %call12 = invoke noundef nonnull align 1 dereferenceable(1) ptr @_ZNSt7__cxx1112basic_stringIcSt11char_traitsIcESaIcEEixEm(ptr noundef nonnull align 8 dereferenceable(32) %agg.result, i64 noundef 0)
          to label %invoke.cont11 unwind label %terminate.lpad

invoke.cont11:                                    ; preds = %land.lhs.true10
  %8 = load i8, ptr %call12, align 1
  %cmp = icmp eq i8 %8, 46
  br i1 %cmp, label %if.then, label %nrvo.skipdtor

if.then:                                          ; preds = %invoke.cont11
  %call14 = invoke noundef nonnull align 8 dereferenceable(32) ptr @_ZNSt7__cxx1112basic_stringIcSt11char_traitsIcESaIcEE5eraseEmm(ptr noundef nonnull align 8 dereferenceable(32) %agg.result, i64 noundef 0, i64 noundef 1)
          to label %nrvo.skipdtor unwind label %terminate.lpad

nrvo.skipdtor:                                    ; preds = %try.cont, %land.lhs.true, %invoke.cont11, %if.then
  ret void

terminate.lpad:                                   ; preds = %if.then, %land.lhs.true10, %catch
  %9 = landingpad { ptr, i32 }
          catch ptr null
  %10 = extractvalue { ptr, i32 } %9, 0
  call void @__clang_call_terminate(ptr %10) #34
  unreachable
}